; ModuleID = '51/265.c'
source_filename = "51/265.c"
target datalayout = "e-m:e-p270:32:32-p271:32:32-p272:64:64-i64:64-f80:128-n8:16:32:64-S128"
target triple = "x86_64-pc-linux-gnu"

@.str = private unnamed_addr constant [3 x i8] c"%d\00", align 1
@.str.1 = private unnamed_addr constant [3 x i8] c"%s\00", align 1
@.str.2 = private unnamed_addr constant [3 x i8] c"NO\00", align 1
@.str.3 = private unnamed_addr constant [4 x i8] c"%d\0A\00", align 1
@.str.4 = private unnamed_addr constant [4 x i8] c"%s\0A\00", align 1

; Function Attrs: noinline nounwind uwtable
define dso_local i32 @main() #0 {
  %1 = alloca i32, align 4
  %2 = alloca [500 x i8], align 16
  %3 = alloca [500 x [6 x i8]], align 16
  %4 = alloca [500 x i32], align 16
  %5 = alloca i32, align 4
  %6 = alloca i32, align 4
  %7 = alloca i32, align 4
  %8 = alloca i32, align 4
  %9 = alloca i32, align 4
  store i32 0, i32* %1, align 4
  %10 = bitcast [500 x [6 x i8]]* %3 to i8*
  call void @llvm.memset.p0i8.i64(i8* align 16 %10, i8 0, i64 3000, i1 false)
  %11 = bitcast [500 x i32]* %4 to i8*
  call void @llvm.memset.p0i8.i64(i8* align 16 %11, i8 0, i64 2000, i1 false)
  %12 = call i32 (i8*, ...) @__isoc99_scanf(i8* getelementptr inbounds ([3 x i8], [3 x i8]* @.str, i64 0, i64 0), i32* %5)
  %13 = getelementptr inbounds [500 x i8], [500 x i8]* %2, i64 0, i64 0
  %14 = call i32 (i8*, ...) @__isoc99_scanf(i8* getelementptr inbounds ([3 x i8], [3 x i8]* @.str.1, i64 0, i64 0), i8* %13)
  %15 = getelementptr inbounds [500 x i8], [500 x i8]* %2, i64 0, i64 0
  %16 = call i64 @strlen(i8* %15) #4
  %17 = trunc i64 %16 to i32
  store i32 %17, i32* %6, align 4
  store i32 0, i32* %7, align 4
  br label %18

18:                                               ; preds = %47, %0
  %19 = load i32, i32* %7, align 4
  %20 = load i32, i32* %6, align 4
  %21 = load i32, i32* %5, align 4
  %22 = sub nsw i32 %20, %21
  %23 = icmp sle i32 %19, %22
  br i1 %23, label %24, label %50

24:                                               ; preds = %18
  store i32 0, i32* %8, align 4
  br label %25

25:                                               ; preds = %43, %24
  %26 = load i32, i32* %8, align 4
  %27 = load i32, i32* %5, align 4
  %28 = sub nsw i32 %27, 1
  %29 = icmp sle i32 %26, %28
  br i1 %29, label %30, label %46

30:                                               ; preds = %25
  %31 = load i32, i32* %7, align 4
  %32 = load i32, i32* %8, align 4
  %33 = add nsw i32 %31, %32
  %34 = sext i32 %33 to i64
  %35 = getelementptr inbounds [500 x i8], [500 x i8]* %2, i64 0, i64 %34
  %36 = load i8, i8* %35, align 1
  %37 = load i32, i32* %7, align 4
  %38 = sext i32 %37 to i64
  %39 = getelementptr inbounds [500 x [6 x i8]], [500 x [6 x i8]]* %3, i64 0, i64 %38
  %40 = load i32, i32* %8, align 4
  %41 = sext i32 %40 to i64
  %42 = getelementptr inbounds [6 x i8], [6 x i8]* %39, i64 0, i64 %41
  store i8 %36, i8* %42, align 1
  br label %43

43:                                               ; preds = %30
  %44 = load i32, i32* %8, align 4
  %45 = add nsw i32 %44, 1
  store i32 %45, i32* %8, align 4
  br label %25

46:                                               ; preds = %25
  br label %47

47:                                               ; preds = %46
  %48 = load i32, i32* %7, align 4
  %49 = add nsw i32 %48, 1
  store i32 %49, i32* %7, align 4
  br label %18

50:                                               ; preds = %18
  store i32 0, i32* %7, align 4
  br label %51

51:                                               ; preds = %87, %50
  %52 = load i32, i32* %7, align 4
  %53 = load i32, i32* %6, align 4
  %54 = load i32, i32* %5, align 4
  %55 = sub nsw i32 %53, %54
  %56 = icmp sle i32 %52, %55
  br i1 %56, label %57, label %90

57:                                               ; preds = %51
  %58 = load i32, i32* %7, align 4
  store i32 %58, i32* %8, align 4
  br label %59

59:                                               ; preds = %83, %57
  %60 = load i32, i32* %8, align 4
  %61 = load i32, i32* %6, align 4
  %62 = load i32, i32* %5, align 4
  %63 = sub nsw i32 %61, %62
  %64 = icmp sle i32 %60, %63
  br i1 %64, label %65, label %86

65:                                               ; preds = %59
  %66 = load i32, i32* %8, align 4
  %67 = sext i32 %66 to i64
  %68 = getelementptr inbounds [500 x [6 x i8]], [500 x [6 x i8]]* %3, i64 0, i64 %67
  %69 = getelementptr inbounds [6 x i8], [6 x i8]* %68, i64 0, i64 0
  %70 = load i32, i32* %7, align 4
  %71 = sext i32 %70 to i64
  %72 = getelementptr inbounds [500 x [6 x i8]], [500 x [6 x i8]]* %3, i64 0, i64 %71
  %73 = getelementptr inbounds [6 x i8], [6 x i8]* %72, i64 0, i64 0
  %74 = call i32 @strcmp(i8* %69, i8* %73) #4
  %75 = icmp eq i32 %74, 0
  br i1 %75, label %76, label %82

76:                                               ; preds = %65
  %77 = load i32, i32* %7, align 4
  %78 = sext i32 %77 to i64
  %79 = getelementptr inbounds [500 x i32], [500 x i32]* %4, i64 0, i64 %78
  %80 = load i32, i32* %79, align 4
  %81 = add nsw i32 %80, 1
  store i32 %81, i32* %79, align 4
  br label %82

82:                                               ; preds = %76, %65
  br label %83

83:                                               ; preds = %82
  %84 = load i32, i32* %8, align 4
  %85 = add nsw i32 %84, 1
  store i32 %85, i32* %8, align 4
  br label %59

86:                                               ; preds = %59
  br label %87

87:                                               ; preds = %86
  %88 = load i32, i32* %7, align 4
  %89 = add nsw i32 %88, 1
  store i32 %89, i32* %7, align 4
  br label %51

90:                                               ; preds = %51
  %91 = getelementptr inbounds [500 x i32], [500 x i32]* %4, i64 0, i64 0
  %92 = load i32, i32* %91, align 16
  store i32 %92, i32* %9, align 4
  store i32 1, i32* %7, align 4
  br label %93

93:                                               ; preds = %112, %90
  %94 = load i32, i32* %7, align 4
  %95 = load i32, i32* %6, align 4
  %96 = load i32, i32* %5, align 4
  %97 = sub nsw i32 %95, %96
  %98 = icmp sle i32 %94, %97
  br i1 %98, label %99, label %115

99:                                               ; preds = %93
  %100 = load i32, i32* %7, align 4
  %101 = sext i32 %100 to i64
  %102 = getelementptr inbounds [500 x i32], [500 x i32]* %4, i64 0, i64 %101
  %103 = load i32, i32* %102, align 4
  %104 = load i32, i32* %9, align 4
  %105 = icmp sgt i32 %103, %104
  br i1 %105, label %106, label %111

106:                                              ; preds = %99
  %107 = load i32, i32* %7, align 4
  %108 = sext i32 %107 to i64
  %109 = getelementptr inbounds [500 x i32], [500 x i32]* %4, i64 0, i64 %108
  %110 = load i32, i32* %109, align 4
  store i32 %110, i32* %9, align 4
  br label %111

111:                                              ; preds = %106, %99
  br label %112

112:                                              ; preds = %111
  %113 = load i32, i32* %7, align 4
  %114 = add nsw i32 %113, 1
  store i32 %114, i32* %7, align 4
  br label %93

115:                                              ; preds = %93
  %116 = load i32, i32* %9, align 4
  %117 = icmp eq i32 %116, 1
  br i1 %117, label %118, label %120

118:                                              ; preds = %115
  %119 = call i32 (i8*, ...) @printf(i8* getelementptr inbounds ([3 x i8], [3 x i8]* @.str.2, i64 0, i64 0))
  br label %147

120:                                              ; preds = %115
  %121 = load i32, i32* %9, align 4
  %122 = call i32 (i8*, ...) @printf(i8* getelementptr inbounds ([4 x i8], [4 x i8]* @.str.3, i64 0, i64 0), i32 %121)
  store i32 0, i32* %7, align 4
  br label %123

123:                                              ; preds = %143, %120
  %124 = load i32, i32* %7, align 4
  %125 = load i32, i32* %6, align 4
  %126 = load i32, i32* %5, align 4
  %127 = sub nsw i32 %125, %126
  %128 = icmp sle i32 %124, %127
  br i1 %128, label %129, label %146

129:                                              ; preds = %123
  %130 = load i32, i32* %7, align 4
  %131 = sext i32 %130 to i64
  %132 = getelementptr inbounds [500 x i32], [500 x i32]* %4, i64 0, i64 %131
  %133 = load i32, i32* %132, align 4
  %134 = load i32, i32* %9, align 4
  %135 = icmp eq i32 %133, %134
  br i1 %135, label %136, label %142

136:                                              ; preds = %129
  %137 = load i32, i32* %7, align 4
  %138 = sext i32 %137 to i64
  %139 = getelementptr inbounds [500 x [6 x i8]], [500 x [6 x i8]]* %3, i64 0, i64 %138
  %140 = getelementptr inbounds [6 x i8], [6 x i8]* %139, i64 0, i64 0
  %141 = call i32 (i8*, ...) @printf(i8* getelementptr inbounds ([4 x i8], [4 x i8]* @.str.4, i64 0, i64 0), i8* %140)
  br label %142

142:                                              ; preds = %136, %129
  br label %143

143:                                              ; preds = %142
  %144 = load i32, i32* %7, align 4
  %145 = add nsw i32 %144, 1
  store i32 %145, i32* %7, align 4
  br label %123

146:                                              ; preds = %123
  br label %147

147:                                              ; preds = %146, %118
  ret i32 0
}

; Function Attrs: argmemonly nounwind willreturn
declare void @llvm.memset.p0i8.i64(i8* nocapture writeonly, i8, i64, i1 immarg) #1

declare dso_local i32 @__isoc99_scanf(i8*, ...) #2

; Function Attrs: nounwind readonly
declare dso_local i64 @strlen(i8*) #3

; Function Attrs: nounwind readonly
declare dso_local i32 @strcmp(i8*, i8*) #3

declare dso_local i32 @printf(i8*, ...) #2


!llvm.module.flags = !{!0}
!llvm.ident = !{!1}

!0 = !{i32 1, !"wchar_size", i32 4}
!1 = !{!"clang version 10.0.0-4ubuntu1 "}
